; Function Attrs: mustprogress nofree norecurse nosync nounwind memory(read, argmem: readwrite, inaccessiblemem: none) uwtable
define dso_local void @_ZN4Luau5Lexer21readBackslashInStringEv(ptr noundef nonnull align 8 captures(none) dereferenceable(120) %0) local_unnamed_addr #13 align 2 {
  %2 = getelementptr inbounds nuw i8, ptr %0, i64 16
  %3 = load i32, ptr %2, align 8, !tbaa !60
  %4 = add i32 %3, 1
  store i32 %4, ptr %2, align 8, !tbaa !60
  %5 = zext i32 %4 to i64
  %6 = getelementptr inbounds nuw i8, ptr %0, i64 8
  %7 = load i64, ptr %6, align 8, !tbaa !59
  %8 = icmp ugt i64 %7, %5
  br i1 %8, label %_ZNK4Luau5Lexer6peekchEv.exit2, label %_ZN4Luau7isSpaceEc.exit

_ZNK4Luau5Lexer6peekchEv.exit2:                   ; preds = %1
  %9 = load ptr, ptr %0, align 8, !tbaa !51
  %10 = getelementptr inbounds nuw i8, ptr %9, i64 %5
  %11 = load i8, ptr %10, align 1, !tbaa !15
  switch i8 %11, label %._ZN4Luau5Lexer10consumeAnyEv.exit_crit_edge [
    i8 13, label %12
    i8 0, label %_ZN4Luau7isSpaceEc.exit
    i8 122, label %24
    i8 10, label %40
  ]

12:                                               ; preds = %_ZNK4Luau5Lexer6peekchEv.exit2
  %13 = add i32 %3, 2
  store i32 %13, ptr %2, align 8, !tbaa !60
  %14 = zext i32 %13 to i64
  %15 = icmp ugt i64 %7, %14
  br i1 %15, label %_ZNK4Luau5Lexer6peekchEv.exit1, label %_ZN4Luau7isSpaceEc.exit

_ZNK4Luau5Lexer6peekchEv.exit1:                   ; preds = %12
  %16 = getelementptr inbounds nuw i8, ptr %9, i64 %14
  %17 = load i8, ptr %16, align 1, !tbaa !15
  %18 = icmp eq i8 %17, 10
  br i1 %18, label %_ZN4Luau5Lexer10consumeAnyEv.exit4, label %_ZN4Luau7isSpaceEc.exit

_ZN4Luau5Lexer10consumeAnyEv.exit4:               ; preds = %_ZNK4Luau5Lexer6peekchEv.exit1
  %19 = getelementptr inbounds nuw i8, ptr %0, i64 20
  %20 = load i32, ptr %19, align 4, !tbaa !66
  %21 = add i32 %20, 1
  store i32 %21, ptr %19, align 4, !tbaa !66
  %22 = add i32 %3, 3
  %23 = getelementptr inbounds nuw i8, ptr %0, i64 24
  store i32 %22, ptr %23, align 8, !tbaa !67
  br label %_ZN4Luau7isSpaceEc.exit.sink.split

24:                                               ; preds = %_ZNK4Luau5Lexer6peekchEv.exit2
  %25 = add i32 %3, 2
  store i32 %25, ptr %2, align 8, !tbaa !60
  %26 = zext i32 %25 to i64
  %27 = icmp ugt i64 %7, %26
  br i1 %27, label %_ZNK4Luau5Lexer6peekchEv.exit.lr.ph, label %_ZN4Luau7isSpaceEc.exit

_ZNK4Luau5Lexer6peekchEv.exit.lr.ph:              ; preds = %24
  %28 = getelementptr inbounds nuw i8, ptr %0, i64 20
  %29 = getelementptr inbounds nuw i8, ptr %0, i64 24
  %.promoted = load i32, ptr %28, align 4
  br label %_ZNK4Luau5Lexer6peekchEv.exit

_ZNK4Luau5Lexer6peekchEv.exit:                    ; preds = %_ZNK4Luau5Lexer6peekchEv.exit.lr.ph, %_ZN4Luau5Lexer10consumeAnyEv.exit3
  %30 = phi i32 [ %.promoted, %_ZNK4Luau5Lexer6peekchEv.exit.lr.ph ], [ %37, %_ZN4Luau5Lexer10consumeAnyEv.exit3 ]
  %31 = phi i64 [ %26, %_ZNK4Luau5Lexer6peekchEv.exit.lr.ph ], [ %38, %_ZN4Luau5Lexer10consumeAnyEv.exit3 ]
  %storemerge5 = phi i32 [ %25, %_ZNK4Luau5Lexer6peekchEv.exit.lr.ph ], [ %.pre-phi9, %_ZN4Luau5Lexer10consumeAnyEv.exit3 ]
  %32 = getelementptr inbounds nuw i8, ptr %9, i64 %31
  %33 = load i8, ptr %32, align 1, !tbaa !15
  switch i8 %33, label %_ZN4Luau7isSpaceEc.exit [
    i8 10, label %34
    i8 9, label %._ZN4Luau5Lexer10consumeAnyEv.exit3_crit_edge
    i8 11, label %._ZN4Luau5Lexer10consumeAnyEv.exit3_crit_edge
    i8 12, label %._ZN4Luau5Lexer10consumeAnyEv.exit3_crit_edge
    i8 13, label %._ZN4Luau5Lexer10consumeAnyEv.exit3_crit_edge
    i8 32, label %._ZN4Luau5Lexer10consumeAnyEv.exit3_crit_edge
  ]

._ZN4Luau5Lexer10consumeAnyEv.exit3_crit_edge:    ; preds = %_ZNK4Luau5Lexer6peekchEv.exit, %_ZNK4Luau5Lexer6peekchEv.exit, %_ZNK4Luau5Lexer6peekchEv.exit, %_ZNK4Luau5Lexer6peekchEv.exit, %_ZNK4Luau5Lexer6peekchEv.exit
  %.pre8 = add i32 %storemerge5, 1
  br label %_ZN4Luau5Lexer10consumeAnyEv.exit3

34:                                               ; preds = %_ZNK4Luau5Lexer6peekchEv.exit
  %35 = add i32 %30, 1
  store i32 %35, ptr %28, align 4, !tbaa !66
  %36 = add i32 %storemerge5, 1
  store i32 %36, ptr %29, align 8, !tbaa !67
  br label %_ZN4Luau5Lexer10consumeAnyEv.exit3

_ZN4Luau5Lexer10consumeAnyEv.exit3:               ; preds = %._ZN4Luau5Lexer10consumeAnyEv.exit3_crit_edge, %34
  %.pre-phi9 = phi i32 [ %.pre8, %._ZN4Luau5Lexer10consumeAnyEv.exit3_crit_edge ], [ %36, %34 ]
  %37 = phi i32 [ %30, %._ZN4Luau5Lexer10consumeAnyEv.exit3_crit_edge ], [ %35, %34 ]
  store i32 %.pre-phi9, ptr %2, align 8, !tbaa !60
  %38 = zext i32 %.pre-phi9 to i64
  %39 = icmp ugt i64 %7, %38
  br i1 %39, label %_ZNK4Luau5Lexer6peekchEv.exit, label %_ZN4Luau7isSpaceEc.exit, !llvm.loop !95

._ZN4Luau5Lexer10consumeAnyEv.exit_crit_edge:     ; preds = %_ZNK4Luau5Lexer6peekchEv.exit2
  %.pre6 = add i32 %3, 2
  br label %_ZN4Luau7isSpaceEc.exit.sink.split

40:                                               ; preds = %_ZNK4Luau5Lexer6peekchEv.exit2
  %41 = getelementptr inbounds nuw i8, ptr %0, i64 20
  %42 = load i32, ptr %41, align 4, !tbaa !66
  %43 = add i32 %42, 1
  store i32 %43, ptr %41, align 4, !tbaa !66
  %44 = add i32 %3, 2
  %45 = getelementptr inbounds nuw i8, ptr %0, i64 24
  store i32 %44, ptr %45, align 8, !tbaa !67
  br label %_ZN4Luau7isSpaceEc.exit.sink.split

_ZN4Luau7isSpaceEc.exit.sink.split:               ; preds = %40, %._ZN4Luau5Lexer10consumeAnyEv.exit_crit_edge, %_ZN4Luau5Lexer10consumeAnyEv.exit4
  %.sink = phi i32 [ %22, %_ZN4Luau5Lexer10consumeAnyEv.exit4 ], [ %.pre6, %._ZN4Luau5Lexer10consumeAnyEv.exit_crit_edge ], [ %44, %40 ]
  store i32 %.sink, ptr %2, align 8, !tbaa !60
  br label %_ZN4Luau7isSpaceEc.exit

_ZN4Luau7isSpaceEc.exit:                          ; preds = %_ZN4Luau5Lexer10consumeAnyEv.exit3, %_ZNK4Luau5Lexer6peekchEv.exit, %_ZN4Luau7isSpaceEc.exit.sink.split, %_ZNK4Luau5Lexer6peekchEv.exit2, %24, %12, %1, %_ZNK4Luau5Lexer6peekchEv.exit1
  ret void
}